; Function Attrs: mustprogress uwtable
define noundef nonnull align 8 dereferenceable(8) ptr @_ZNK3gmx22CommandLineHelpContext21shellCompletionWriterEv(ptr noundef nonnull readonly align 8 captures(none) dereferenceable(8) %0) local_unnamed_addr #0 align 2 {
  %2 = load ptr, ptr %0, align 8, !tbaa !27
  %3 = getelementptr inbounds nuw i8, ptr %2, i64 40
  %4 = load ptr, ptr %3, align 8, !tbaa !14
  %.not = icmp eq ptr %4, null
  br i1 %.not, label %5, label %6

5:                                                ; preds = %1
  tail call void @_ZN3gmx8internal13assertHandlerEPKcS2_S2_S2_i(ptr noundef nonnull @.str.7, ptr noundef nonnull @.str.8, ptr noundef nonnull @"__PRETTY_FUNCTION__._ZZNK3gmx22CommandLineHelpContext21shellCompletionWriterEvENK3$_0clEv", ptr noundef nonnull @.str.9, i32 noundef 179) #21
  unreachable

6:                                                ; preds = %1
  ret ptr %4
}